target datalayout = "e-m:e-p270:32:32-p271:32:32-p272:64:64-i64:64-i128:128-f80:128-n8:16:32:64-S128"
target triple = "x86_64-pc-linux-gnu"

%"class.boost::container::pmr::synchronized_pool_resource" = type { %"class.boost::container::pmr::memory_resource", %"class.boost::container::dtl::thread_mutex", %"class.boost::container::pmr::pool_resource" }
%"class.boost::container::pmr::memory_resource" = type { ptr }
%"class.boost::container::dtl::thread_mutex" = type { %union.pthread_mutex_t }
%union.pthread_mutex_t = type { %struct.__pthread_mutex_s }
%struct.__pthread_mutex_s = type { i32, i32, i32, i32, i32, i16, i16, %struct.__pthread_internal_list }
%struct.__pthread_internal_list = type { ptr, ptr }
%"class.boost::container::pmr::pool_resource" = type { %"struct.boost::container::pmr::pool_options", ptr, %"class.boost::container::pmr::block_list_base", ptr, i64 }
%"struct.boost::container::pmr::pool_options" = type { i64, i64 }
%"class.boost::container::pmr::block_list_base" = type { %"struct.boost::container::pmr::list_node" }
%"struct.boost::container::pmr::list_node" = type { ptr, ptr }
%"class.(anonymous namespace)::thread_mutex_lock" = type { ptr }

; Function Attrs: noinline noreturn nounwind uwtable
define linkonce_odr hidden void @__clang_call_terminate(ptr noundef %0) #2 comdat {
  %2 = call ptr @__cxa_begin_catch(ptr %0) #9
  call void @_ZSt9terminatev() #10
  unreachable
}

; Function Attrs: mustprogress nounwind uwtable
define linkonce_odr hidden void @_ZN5boost9container3dtl12thread_mutex6unlockEv(ptr noundef nonnull align 8 dereferenceable(40) %0) #0 comdat align 2 {
  %2 = alloca ptr, align 8
  store ptr %0, ptr %2, align 8, !tbaa !3
  %3 = load ptr, ptr %2, align 8
  %4 = getelementptr inbounds nuw %"class.boost::container::dtl::thread_mutex", ptr %3, i32 0, i32 0
  %5 = call i32 @pthread_mutex_unlock(ptr noundef %4) #9
  ret void
}

; Function Attrs: mustprogress nounwind uwtable
define linkonce_odr hidden void @_ZN5boost9container3dtl12thread_mutex4lockEv(ptr noundef nonnull align 8 dereferenceable(40) %0) #0 comdat align 2 {
  %2 = alloca ptr, align 8
  store ptr %0, ptr %2, align 8, !tbaa !3
  %3 = load ptr, ptr %2, align 8
  %4 = getelementptr inbounds nuw %"class.boost::container::dtl::thread_mutex", ptr %3, i32 0, i32 0
  %5 = call i32 @pthread_mutex_lock(ptr noundef %4) #9
  ret void
}

; Function Attrs: mustprogress nounwind uwtable
define internal void @_ZN12_GLOBAL__N_117thread_mutex_lockD2Ev(ptr noundef nonnull align 8 dereferenceable(8) %0) unnamed_addr #0 align 2 personality ptr @__gxx_personality_v0 {
  %2 = alloca ptr, align 8
  store ptr %0, ptr %2, align 8, !tbaa !3
  %3 = load ptr, ptr %2, align 8
  %4 = getelementptr inbounds nuw %"class.(anonymous namespace)::thread_mutex_lock", ptr %3, i32 0, i32 0
  %5 = load ptr, ptr %4, align 8, !tbaa !9
  invoke void @_ZN5boost9container3dtl12thread_mutex6unlockEv(ptr noundef nonnull align 8 dereferenceable(40) %5)
          to label %6 unwind label %7

6:                                                ; preds = %1
  ret void

7:                                                ; preds = %1
  %8 = landingpad { ptr, i32 }
          catch ptr null
  %9 = extractvalue { ptr, i32 } %8, 0
  call void @__clang_call_terminate(ptr %9) #10
  unreachable
}

; Function Attrs: mustprogress uwtable
define internal void @_ZN12_GLOBAL__N_117thread_mutex_lockC2ERN5boost9container3dtl12thread_mutexE(ptr noundef nonnull align 8 dereferenceable(8) %0, ptr noundef nonnull align 8 dereferenceable(40) %1) unnamed_addr #5 align 2 {
  %3 = alloca ptr, align 8
  %4 = alloca ptr, align 8
  store ptr %0, ptr %3, align 8, !tbaa !3
  store ptr %1, ptr %4, align 8, !tbaa !3
  %5 = load ptr, ptr %3, align 8
  %6 = getelementptr inbounds nuw %"class.(anonymous namespace)::thread_mutex_lock", ptr %5, i32 0, i32 0
  %7 = load ptr, ptr %4, align 8, !tbaa !3
  store ptr %7, ptr %6, align 8, !tbaa !3
  %8 = getelementptr inbounds nuw %"class.(anonymous namespace)::thread_mutex_lock", ptr %5, i32 0, i32 0
  %9 = load ptr, ptr %8, align 8, !tbaa !9
  call void @_ZN5boost9container3dtl12thread_mutex4lockEv(ptr noundef nonnull align 8 dereferenceable(40) %9)
  ret void
}

; Function Attrs: mustprogress uwtable
define void @_ZN5boost9container3pmr26synchronized_pool_resource13do_deallocateEPvmm(ptr noundef nonnull align 8 dereferenceable(104) %0, ptr noundef %1, i64 noundef %2, i64 noundef %3) unnamed_addr #5 align 2 personality ptr @__gxx_personality_v0 {
  %5 = alloca ptr, align 8
  %6 = alloca ptr, align 8
  %7 = alloca i64, align 8
  %8 = alloca i64, align 8
  %9 = alloca %"class.(anonymous namespace)::thread_mutex_lock", align 8
  %10 = alloca ptr, align 8
  %11 = alloca i32, align 4
  store ptr %0, ptr %5, align 8, !tbaa !3
  store ptr %1, ptr %6, align 8, !tbaa !3
  store i64 %2, ptr %7, align 8, !tbaa !11
  store i64 %3, ptr %8, align 8, !tbaa !11
  %12 = load ptr, ptr %5, align 8
  call void @llvm.lifetime.start.p0(i64 8, ptr %9) #9
  %13 = getelementptr inbounds nuw %"class.boost::container::pmr::synchronized_pool_resource", ptr %12, i32 0, i32 1
  call void @_ZN12_GLOBAL__N_117thread_mutex_lockC2ERN5boost9container3dtl12thread_mutexE(ptr noundef nonnull align 8 dereferenceable(8) %9, ptr noundef nonnull align 8 dereferenceable(40) %13)
  %14 = getelementptr inbounds nuw %"class.boost::container::pmr::synchronized_pool_resource", ptr %12, i32 0, i32 2
  %15 = load ptr, ptr %6, align 8, !tbaa !3
  %16 = load i64, ptr %7, align 8, !tbaa !11
  %17 = load i64, ptr %8, align 8, !tbaa !11
  invoke void @_ZN5boost9container3pmr13pool_resource13do_deallocateEPvmm(ptr noundef nonnull align 8 dereferenceable(56) %14, ptr noundef %15, i64 noundef %16, i64 noundef %17)
          to label %18 unwind label %19

18:                                               ; preds = %4
  call void @_ZN12_GLOBAL__N_117thread_mutex_lockD2Ev(ptr noundef nonnull align 8 dereferenceable(8) %9) #9
  call void @llvm.lifetime.end.p0(i64 8, ptr %9) #9
  ret void

19:                                               ; preds = %4
  %20 = landingpad { ptr, i32 }
          cleanup
  %21 = extractvalue { ptr, i32 } %20, 0
  store ptr %21, ptr %10, align 8
  %22 = extractvalue { ptr, i32 } %20, 1
  store i32 %22, ptr %11, align 4
  call void @_ZN12_GLOBAL__N_117thread_mutex_lockD2Ev(ptr noundef nonnull align 8 dereferenceable(8) %9) #9
  call void @llvm.lifetime.end.p0(i64 8, ptr %9) #9
  br label %23

23:                                               ; preds = %19
  %24 = load ptr, ptr %10, align 8
  %25 = load i32, ptr %11, align 4
  %26 = insertvalue { ptr, i32 } poison, ptr %24, 0
  %27 = insertvalue { ptr, i32 } %26, i32 %25, 1
  resume { ptr, i32 } %27
}