; Function Attrs: mustprogress uwtable
define void @_ZN5boost9container3pmr26synchronized_pool_resource13do_deallocateEPvmm(ptr noundef nonnull align 8 dereferenceable(104) %0, ptr noundef %1, i64 noundef %2, i64 noundef %3) unnamed_addr #3 align 2 personality ptr @__gxx_personality_v0 {
  %5 = getelementptr inbounds nuw i8, ptr %0, i64 8
  %6 = tail call i32 @pthread_mutex_lock(ptr noundef nonnull align 8 dereferenceable(40) %5) #6
  %7 = getelementptr inbounds nuw i8, ptr %0, i64 48
  invoke void @_ZN5boost9container3pmr13pool_resource13do_deallocateEPvmm(ptr noundef nonnull align 8 dereferenceable(56) %7, ptr noundef %1, i64 noundef %2, i64 noundef %3)
          to label %8 unwind label %10

8:                                                ; preds = %4
  %9 = tail call i32 @pthread_mutex_unlock(ptr noundef nonnull align 8 dereferenceable(40) %5) #6
  ret void

10:                                               ; preds = %4
  %11 = landingpad { ptr, i32 }
          cleanup
  %12 = tail call i32 @pthread_mutex_unlock(ptr noundef nonnull align 8 dereferenceable(40) %5) #6
  resume { ptr, i32 } %11
}